; Function Attrs: nofree norecurse nosync nounwind memory(argmem: readwrite) uwtable
define internal void @pred8x8_left_dc_10_c(ptr noundef captures(none) %0, i64 noundef %1) #3 {
  %3 = ashr i64 %1, 1
  %invariant.gep = getelementptr i8, ptr %0, i64 -2
  br label %4

4:                                                ; preds = %2, %4
  %indvars.iv = phi i64 [ 0, %2 ], [ %indvars.iv.next, %4 ]
  %.03338 = phi i32 [ 0, %2 ], [ %8, %4 ]
  %.03437 = phi i32 [ 0, %2 ], [ %13, %4 ]
  %5 = mul nsw i64 %3, %indvars.iv
  %gep = getelementptr i16, ptr %invariant.gep, i64 %5
  %6 = load i16, ptr %gep, align 2, !tbaa !9
  %7 = zext i16 %6 to i32
  %8 = add nuw nsw i32 %.03338, %7
  %9 = or disjoint i64 %indvars.iv, 4
  %10 = mul nsw i64 %3, %9
  %gep36 = getelementptr i16, ptr %invariant.gep, i64 %10
  %11 = load i16, ptr %gep36, align 2, !tbaa !9
  %12 = zext i16 %11 to i32
  %13 = add nuw nsw i32 %.03437, %12
  %indvars.iv.next = add nuw nsw i64 %indvars.iv, 1
  %exitcond.not = icmp eq i64 %indvars.iv.next, 4
  br i1 %exitcond.not, label %14, label %4, !llvm.loop !89

14:                                               ; preds = %4
  %15 = add nuw nsw i32 %8, 2
  %16 = lshr i32 %15, 2
  %17 = zext nneg i32 %16 to i64
  %18 = mul i64 %17, 281479271743489
  br label %19

19:                                               ; preds = %14, %19
  %indvars.iv44 = phi i64 [ 0, %14 ], [ %indvars.iv.next45, %19 ]
  %20 = mul nsw i64 %3, %indvars.iv44
  %21 = getelementptr inbounds i16, ptr %0, i64 %20
  store i64 %18, ptr %21, align 8, !tbaa !8
  %22 = getelementptr inbounds nuw i8, ptr %21, i64 8
  store i64 %18, ptr %22, align 8, !tbaa !8
  %indvars.iv.next45 = add nuw nsw i64 %indvars.iv44, 1
  %exitcond47.not = icmp eq i64 %indvars.iv.next45, 4
  br i1 %exitcond47.not, label %.preheader.preheader, label %19, !llvm.loop !90

.preheader.preheader:                             ; preds = %19
  %23 = add nuw nsw i32 %13, 2
  %24 = lshr i32 %23, 2
  %25 = zext nneg i32 %24 to i64
  %26 = mul i64 %25, 281479271743489
  br label %.preheader

.preheader:                                       ; preds = %.preheader.preheader, %.preheader
  %indvars.iv48 = phi i64 [ 4, %.preheader.preheader ], [ %indvars.iv.next49, %.preheader ]
  %27 = mul nsw i64 %3, %indvars.iv48
  %28 = getelementptr inbounds i16, ptr %0, i64 %27
  store i64 %26, ptr %28, align 8, !tbaa !8
  %29 = getelementptr inbounds nuw i8, ptr %28, i64 8
  store i64 %26, ptr %29, align 8, !tbaa !8
  %indvars.iv.next49 = add nuw nsw i64 %indvars.iv48, 1
  %exitcond51.not = icmp eq i64 %indvars.iv.next49, 8
  br i1 %exitcond51.not, label %30, label %.preheader, !llvm.loop !91

30:                                               ; preds = %.preheader
  ret void
}